target datalayout = "e-m:e-p270:32:32-p271:32:32-p272:64:64-i64:64-i128:128-f80:128-n8:16:32:64-S128"
target triple = "x86_64-pc-linux-gnu"

%"class.cv::utils::trace::details::Region" = type <{ ptr, i32, [4 x i8] }>
%"struct.cv::hal::cpu_baseline::(anonymous namespace)::RGB2HSV_f" = type { i32, i32, float }
%"class.cv::Range" = type { i32, i32 }
%"class.cv::ParallelLoopBody" = type { ptr }
%"class.cv::impl::(anonymous namespace)::CvtColorLoop_Invoker.1" = type { %"class.cv::ParallelLoopBody", ptr, i64, ptr, i64, i32, ptr }

; Function Attrs: mustprogress nounwind uwtable
define linkonce_odr noundef float @_ZSt4fabsf(float noundef %0) #2 comdat {
  %2 = alloca float, align 4
  store float %0, ptr %2, align 4
  %3 = load float, ptr %2, align 4
  %4 = call float @llvm.fabs.f32(float %3)
  ret float %4
}

; Function Attrs: mustprogress uwtable
define internal void @_ZNK2cv3hal12cpu_baseline12_GLOBAL__N_19RGB2HSV_fclEPKfPfi(ptr noundef nonnull align 4 dereferenceable(12) %0, ptr noundef %1, ptr noundef %2, i32 noundef %3) #0 align 2 personality ptr @__gxx_personality_v0 {
  %5 = alloca ptr, align 8
  %6 = alloca ptr, align 8
  %7 = alloca ptr, align 8
  %8 = alloca i32, align 4
  %9 = alloca %"class.cv::utils::trace::details::Region", align 8
  %10 = alloca i32, align 4
  %11 = alloca i32, align 4
  %12 = alloca i32, align 4
  %13 = alloca float, align 4
  %14 = alloca float, align 4
  %15 = alloca float, align 4
  %16 = alloca float, align 4
  %17 = alloca float, align 4
  %18 = alloca float, align 4
  %19 = alloca float, align 4
  %20 = alloca float, align 4
  %21 = alloca float, align 4
  %22 = alloca ptr, align 8
  %23 = alloca i32, align 4
  store ptr %0, ptr %5, align 8
  store ptr %1, ptr %6, align 8
  store ptr %2, ptr %7, align 8
  store i32 %3, ptr %8, align 4
  %24 = load ptr, ptr %5, align 8
  call void @_ZN2cv5utils5trace7details6RegionC1ERKNS3_21LocationStaticStorageE(ptr noundef nonnull align 8 dereferenceable(12) %9, ptr noundef nonnull align 8 dereferenceable(32) @_ZZNK2cv3hal12cpu_baseline12_GLOBAL__N_19RGB2HSV_fclEPKfPfiE25__cv_trace_location_fn305)
  store i32 0, ptr %10, align 4
  %25 = getelementptr inbounds %"struct.cv::hal::cpu_baseline::(anonymous namespace)::RGB2HSV_f", ptr %24, i32 0, i32 1
  %26 = load i32, ptr %25, align 4
  store i32 %26, ptr %11, align 4
  %27 = getelementptr inbounds %"struct.cv::hal::cpu_baseline::(anonymous namespace)::RGB2HSV_f", ptr %24, i32 0, i32 0
  %28 = load i32, ptr %27, align 4
  store i32 %28, ptr %12, align 4
  %29 = getelementptr inbounds %"struct.cv::hal::cpu_baseline::(anonymous namespace)::RGB2HSV_f", ptr %24, i32 0, i32 2
  %30 = load float, ptr %29, align 4
  %31 = fmul float %30, 0x3F66C16C20000000
  store float %31, ptr %13, align 4
  %32 = load i32, ptr %8, align 4
  %33 = mul nsw i32 %32, 3
  store i32 %33, ptr %8, align 4
  br label %34

34:                                               ; preds = %148, %4
  %35 = load i32, ptr %10, align 4
  %36 = load i32, ptr %8, align 4
  %37 = icmp slt i32 %35, %36
  br i1 %37, label %38, label %155

38:                                               ; preds = %34
  %39 = load ptr, ptr %6, align 8
  %40 = load i32, ptr %11, align 4
  %41 = sext i32 %40 to i64
  %42 = getelementptr inbounds float, ptr %39, i64 %41
  %43 = load float, ptr %42, align 4
  store float %43, ptr %14, align 4
  %44 = load ptr, ptr %6, align 8
  %45 = getelementptr inbounds float, ptr %44, i64 1
  %46 = load float, ptr %45, align 4
  store float %46, ptr %15, align 4
  %47 = load ptr, ptr %6, align 8
  %48 = load i32, ptr %11, align 4
  %49 = xor i32 %48, 2
  %50 = sext i32 %49 to i64
  %51 = getelementptr inbounds float, ptr %47, i64 %50
  %52 = load float, ptr %51, align 4
  store float %52, ptr %16, align 4
  %53 = load float, ptr %16, align 4
  store float %53, ptr %20, align 4
  store float %53, ptr %19, align 4
  %54 = load float, ptr %19, align 4
  %55 = load float, ptr %15, align 4
  %56 = fcmp olt float %54, %55
  br i1 %56, label %57, label %59

57:                                               ; preds = %38
  %58 = load float, ptr %15, align 4
  store float %58, ptr %19, align 4
  br label %59

59:                                               ; preds = %57, %38
  %60 = load float, ptr %19, align 4
  %61 = load float, ptr %14, align 4
  %62 = fcmp olt float %60, %61
  br i1 %62, label %63, label %65

63:                                               ; preds = %59
  %64 = load float, ptr %14, align 4
  store float %64, ptr %19, align 4
  br label %65

65:                                               ; preds = %63, %59
  %66 = load float, ptr %20, align 4
  %67 = load float, ptr %15, align 4
  %68 = fcmp ogt float %66, %67
  br i1 %68, label %69, label %71

69:                                               ; preds = %65
  %70 = load float, ptr %15, align 4
  store float %70, ptr %20, align 4
  br label %71

71:                                               ; preds = %69, %65
  %72 = load float, ptr %20, align 4
  %73 = load float, ptr %14, align 4
  %74 = fcmp ogt float %72, %73
  br i1 %74, label %75, label %77

75:                                               ; preds = %71
  %76 = load float, ptr %14, align 4
  store float %76, ptr %20, align 4
  br label %77

77:                                               ; preds = %75, %71
  %78 = load float, ptr %19, align 4
  %79 = load float, ptr %20, align 4
  %80 = fsub float %78, %79
  store float %80, ptr %21, align 4
  %81 = load float, ptr %21, align 4
  %82 = load float, ptr %19, align 4
  %83 = invoke noundef float @_ZSt4fabsf(float noundef %82)
          to label %84 unwind label %101

84:                                               ; preds = %77
  %85 = fadd float %83, 0x3E80000000000000
  %86 = fdiv float %81, %85
  store float %86, ptr %18, align 4
  %87 = load float, ptr %21, align 4
  %88 = fadd float %87, 0x3E80000000000000
  %89 = fpext float %88 to double
  %90 = fdiv double 6.000000e+01, %89
  %91 = fptrunc double %90 to float
  store float %91, ptr %21, align 4
  %92 = load float, ptr %19, align 4
  %93 = load float, ptr %16, align 4
  %94 = fcmp oeq float %92, %93
  br i1 %94, label %95, label %105

95:                                               ; preds = %84
  %96 = load float, ptr %15, align 4
  %97 = load float, ptr %14, align 4
  %98 = fsub float %96, %97
  %99 = load float, ptr %21, align 4
  %100 = fmul float %98, %99
  store float %100, ptr %17, align 4
  br label %122

101:                                              ; preds = %77
  %102 = landingpad { ptr, i32 }
          cleanup
  %103 = extractvalue { ptr, i32 } %102, 0
  store ptr %103, ptr %22, align 8
  %104 = extractvalue { ptr, i32 } %102, 1
  store i32 %104, ptr %23, align 4
  call void @_ZN2cv5utils5trace7details6RegionD2Ev(ptr noundef nonnull align 8 dereferenceable(12) %9) #5
  br label %156

105:                                              ; preds = %84
  %106 = load float, ptr %19, align 4
  %107 = load float, ptr %15, align 4
  %108 = fcmp oeq float %106, %107
  br i1 %108, label %109, label %115

109:                                              ; preds = %105
  %110 = load float, ptr %14, align 4
  %111 = load float, ptr %16, align 4
  %112 = fsub float %110, %111
  %113 = load float, ptr %21, align 4
  %114 = call float @llvm.fmuladd.f32(float %112, float %113, float 1.200000e+02)
  store float %114, ptr %17, align 4
  br label %121

115:                                              ; preds = %105
  %116 = load float, ptr %16, align 4
  %117 = load float, ptr %15, align 4
  %118 = fsub float %116, %117
  %119 = load float, ptr %21, align 4
  %120 = call float @llvm.fmuladd.f32(float %118, float %119, float 2.400000e+02)
  store float %120, ptr %17, align 4
  br label %121

121:                                              ; preds = %115, %109
  br label %122

122:                                              ; preds = %121, %95
  %123 = load float, ptr %17, align 4
  %124 = fcmp olt float %123, 0.000000e+00
  br i1 %124, label %125, label %128

125:                                              ; preds = %122
  %126 = load float, ptr %17, align 4
  %127 = fadd float %126, 3.600000e+02
  store float %127, ptr %17, align 4
  br label %128

128:                                              ; preds = %125, %122
  %129 = load float, ptr %17, align 4
  %130 = load float, ptr %13, align 4
  %131 = fmul float %129, %130
  %132 = load ptr, ptr %7, align 8
  %133 = load i32, ptr %10, align 4
  %134 = sext i32 %133 to i64
  %135 = getelementptr inbounds float, ptr %132, i64 %134
  store float %131, ptr %135, align 4
  %136 = load float, ptr %18, align 4
  %137 = load ptr, ptr %7, align 8
  %138 = load i32, ptr %10, align 4
  %139 = add nsw i32 %138, 1
  %140 = sext i32 %139 to i64
  %141 = getelementptr inbounds float, ptr %137, i64 %140
  store float %136, ptr %141, align 4
  %142 = load float, ptr %19, align 4
  %143 = load ptr, ptr %7, align 8
  %144 = load i32, ptr %10, align 4
  %145 = add nsw i32 %144, 2
  %146 = sext i32 %145 to i64
  %147 = getelementptr inbounds float, ptr %143, i64 %146
  store float %142, ptr %147, align 4
  br label %148

148:                                              ; preds = %128
  %149 = load i32, ptr %10, align 4
  %150 = add nsw i32 %149, 3
  store i32 %150, ptr %10, align 4
  %151 = load i32, ptr %12, align 4
  %152 = load ptr, ptr %6, align 8
  %153 = sext i32 %151 to i64
  %154 = getelementptr inbounds float, ptr %152, i64 %153
  store ptr %154, ptr %6, align 8
  br label %34, !llvm.loop !10

155:                                              ; preds = %34
  call void @_ZN2cv5utils5trace7details6RegionD2Ev(ptr noundef nonnull align 8 dereferenceable(12) %9) #5
  ret void

156:                                              ; preds = %101
  %157 = load ptr, ptr %22, align 8
  %158 = load i32, ptr %23, align 4
  %159 = insertvalue { ptr, i32 } poison, ptr %157, 0
  %160 = insertvalue { ptr, i32 } %159, i32 %158, 1
  resume { ptr, i32 } %160
}

; Function Attrs: mustprogress uwtable
define internal void @_ZNK2cv4impl12_GLOBAL__N_120CvtColorLoop_InvokerINS_3hal12cpu_baseline12_GLOBAL__N_19RGB2HSV_fEEclERKNS_5RangeE(ptr noundef nonnull align 8 dereferenceable(56) %0, ptr noundef nonnull align 4 dereferenceable(8) %1) unnamed_addr #0 align 2 personality ptr @__gxx_personality_v0 {
  %3 = alloca ptr, align 8
  %4 = alloca ptr, align 8
  %5 = alloca %"class.cv::utils::trace::details::Region", align 8
  %6 = alloca ptr, align 8
  %7 = alloca ptr, align 8
  %8 = alloca i32, align 4
  %9 = alloca ptr, align 8
  %10 = alloca i32, align 4
  store ptr %0, ptr %3, align 8
  store ptr %1, ptr %4, align 8
  %11 = load ptr, ptr %3, align 8
  call void @_ZN2cv5utils5trace7details6RegionC1ERKNS3_21LocationStaticStorageE(ptr noundef nonnull align 8 dereferenceable(12) %5, ptr noundef nonnull align 8 dereferenceable(32) @_ZZNK2cv4impl12_GLOBAL__N_120CvtColorLoop_InvokerINS_3hal12cpu_baseline12_GLOBAL__N_19RGB2HSV_fEEclERKNS_5RangeEE25__cv_trace_location_fn146)
  %12 = getelementptr inbounds %"class.cv::impl::(anonymous namespace)::CvtColorLoop_Invoker.1", ptr %11, i32 0, i32 1
  %13 = load ptr, ptr %12, align 8
  %14 = load ptr, ptr %4, align 8
  %15 = getelementptr inbounds %"class.cv::Range", ptr %14, i32 0, i32 0
  %16 = load i32, ptr %15, align 4
  %17 = sext i32 %16 to i64
  %18 = getelementptr inbounds %"class.cv::impl::(anonymous namespace)::CvtColorLoop_Invoker.1", ptr %11, i32 0, i32 2
  %19 = load i64, ptr %18, align 8
  %20 = mul i64 %17, %19
  %21 = getelementptr inbounds i8, ptr %13, i64 %20
  store ptr %21, ptr %6, align 8
  %22 = getelementptr inbounds %"class.cv::impl::(anonymous namespace)::CvtColorLoop_Invoker.1", ptr %11, i32 0, i32 3
  %23 = load ptr, ptr %22, align 8
  %24 = load ptr, ptr %4, align 8
  %25 = getelementptr inbounds %"class.cv::Range", ptr %24, i32 0, i32 0
  %26 = load i32, ptr %25, align 4
  %27 = sext i32 %26 to i64
  %28 = getelementptr inbounds %"class.cv::impl::(anonymous namespace)::CvtColorLoop_Invoker.1", ptr %11, i32 0, i32 4
  %29 = load i64, ptr %28, align 8
  %30 = mul i64 %27, %29
  %31 = getelementptr inbounds i8, ptr %23, i64 %30
  store ptr %31, ptr %7, align 8
  %32 = load ptr, ptr %4, align 8
  %33 = getelementptr inbounds %"class.cv::Range", ptr %32, i32 0, i32 0
  %34 = load i32, ptr %33, align 4
  store i32 %34, ptr %8, align 4
  br label %35

35:                                               ; preds = %49, %2
  %36 = load i32, ptr %8, align 4
  %37 = load ptr, ptr %4, align 8
  %38 = getelementptr inbounds %"class.cv::Range", ptr %37, i32 0, i32 1
  %39 = load i32, ptr %38, align 4
  %40 = icmp slt i32 %36, %39
  br i1 %40, label %41, label %64

41:                                               ; preds = %35
  %42 = getelementptr inbounds %"class.cv::impl::(anonymous namespace)::CvtColorLoop_Invoker.1", ptr %11, i32 0, i32 6
  %43 = load ptr, ptr %42, align 8
  %44 = load ptr, ptr %6, align 8
  %45 = load ptr, ptr %7, align 8
  %46 = getelementptr inbounds %"class.cv::impl::(anonymous namespace)::CvtColorLoop_Invoker.1", ptr %11, i32 0, i32 5
  %47 = load i32, ptr %46, align 8
  invoke void @_ZNK2cv3hal12cpu_baseline12_GLOBAL__N_19RGB2HSV_fclEPKfPfi(ptr noundef nonnull align 4 dereferenceable(12) %43, ptr noundef %44, ptr noundef %45, i32 noundef %47)
          to label %48 unwind label %60

48:                                               ; preds = %41
  br label %49

49:                                               ; preds = %48
  %50 = load i32, ptr %8, align 4
  %51 = add nsw i32 %50, 1
  store i32 %51, ptr %8, align 4
  %52 = getelementptr inbounds %"class.cv::impl::(anonymous namespace)::CvtColorLoop_Invoker.1", ptr %11, i32 0, i32 2
  %53 = load i64, ptr %52, align 8
  %54 = load ptr, ptr %6, align 8
  %55 = getelementptr inbounds i8, ptr %54, i64 %53
  store ptr %55, ptr %6, align 8
  %56 = getelementptr inbounds %"class.cv::impl::(anonymous namespace)::CvtColorLoop_Invoker.1", ptr %11, i32 0, i32 4
  %57 = load i64, ptr %56, align 8
  %58 = load ptr, ptr %7, align 8
  %59 = getelementptr inbounds i8, ptr %58, i64 %57
  store ptr %59, ptr %7, align 8
  br label %35, !llvm.loop !9

60:                                               ; preds = %41
  %61 = landingpad { ptr, i32 }
          cleanup
  %62 = extractvalue { ptr, i32 } %61, 0
  store ptr %62, ptr %9, align 8
  %63 = extractvalue { ptr, i32 } %61, 1
  store i32 %63, ptr %10, align 4
  call void @_ZN2cv5utils5trace7details6RegionD2Ev(ptr noundef nonnull align 8 dereferenceable(12) %5) #5
  br label %65

64:                                               ; preds = %35
  call void @_ZN2cv5utils5trace7details6RegionD2Ev(ptr noundef nonnull align 8 dereferenceable(12) %5) #5
  ret void

65:                                               ; preds = %60
  %66 = load ptr, ptr %9, align 8
  %67 = load i32, ptr %10, align 4
  %68 = insertvalue { ptr, i32 } poison, ptr %66, 0
  %69 = insertvalue { ptr, i32 } %68, i32 %67, 1
  resume { ptr, i32 } %69
}