; Function Attrs: mustprogress uwtable
define internal void @_ZNK2cv4impl12_GLOBAL__N_120CvtColorLoop_InvokerINS_3hal12cpu_baseline12_GLOBAL__N_19RGB2HSV_fEEclERKNS_5RangeE(ptr nocapture noundef nonnull readonly align 8 dereferenceable(56) %0, ptr nocapture noundef nonnull readonly align 4 dereferenceable(8) %1) unnamed_addr #0 align 2 personality ptr @__gxx_personality_v0 {
  %3 = alloca %"class.cv::utils::trace::details::Region", align 8
  %4 = alloca %"class.cv::utils::trace::details::Region", align 8
  call void @_ZN2cv5utils5trace7details6RegionC1ERKNS3_21LocationStaticStorageE(ptr noundef nonnull align 8 dereferenceable(12) %4, ptr noundef nonnull align 8 dereferenceable(32) @_ZZNK2cv4impl12_GLOBAL__N_120CvtColorLoop_InvokerINS_3hal12cpu_baseline12_GLOBAL__N_19RGB2HSV_fEEclERKNS_5RangeEE25__cv_trace_location_fn146)
  %5 = load i32, ptr %1, align 4
  %6 = getelementptr inbounds i8, ptr %0, i64 16
  %7 = getelementptr inbounds i8, ptr %0, i64 32
  %8 = getelementptr inbounds i8, ptr %1, i64 4
  %9 = load i32, ptr %8, align 4
  %10 = icmp slt i32 %5, %9
  br i1 %10, label %.lr.ph, label %._crit_edge

.lr.ph:                                           ; preds = %2
  %11 = getelementptr inbounds i8, ptr %0, i64 24
  %12 = load ptr, ptr %11, align 8
  %13 = load i64, ptr %7, align 8
  %14 = sext i32 %5 to i64
  %15 = mul i64 %13, %14
  %16 = getelementptr inbounds i8, ptr %12, i64 %15
  %17 = getelementptr inbounds i8, ptr %0, i64 8
  %18 = load ptr, ptr %17, align 8
  %19 = load i64, ptr %6, align 8
  %20 = mul i64 %19, %14
  %21 = getelementptr inbounds i8, ptr %18, i64 %20
  %22 = getelementptr inbounds i8, ptr %0, i64 48
  %23 = getelementptr inbounds i8, ptr %0, i64 40
  %24 = getelementptr inbounds i8, ptr %3, i64 8
  br label %25

25:                                               ; preds = %.lr.ph, %84
  %.016 = phi ptr [ %21, %.lr.ph ], [ %87, %84 ]
  %.01215 = phi ptr [ %16, %.lr.ph ], [ %89, %84 ]
  %.01314 = phi i32 [ %5, %.lr.ph ], [ %85, %84 ]
  %26 = load ptr, ptr %22, align 8
  %27 = load i32, ptr %23, align 8
  call void @llvm.lifetime.start.p0(i64 16, ptr nonnull %3)
  invoke void @_ZN2cv5utils5trace7details6RegionC1ERKNS3_21LocationStaticStorageE(ptr noundef nonnull align 8 dereferenceable(12) %3, ptr noundef nonnull align 8 dereferenceable(32) @_ZZNK2cv3hal12cpu_baseline12_GLOBAL__N_19RGB2HSV_fclEPKfPfiE25__cv_trace_location_fn305)
          to label %.noexc unwind label %92

.noexc:                                           ; preds = %25
  %28 = getelementptr inbounds i8, ptr %26, i64 8
  %29 = load float, ptr %28, align 4
  %30 = fmul float %29, 0x3F66C16C20000000
  %31 = icmp sgt i32 %27, 0
  br i1 %31, label %.lr.ph.i, label %._crit_edge.i

.lr.ph.i:                                         ; preds = %.noexc
  %32 = mul nuw nsw i32 %27, 3
  %33 = load i32, ptr %26, align 4
  %34 = getelementptr inbounds i8, ptr %26, i64 4
  %35 = load i32, ptr %34, align 4
  %36 = sext i32 %35 to i64
  %37 = xor i32 %35, 2
  %38 = sext i32 %37 to i64
  %39 = sext i32 %33 to i64
  %40 = zext nneg i32 %32 to i64
  br label %41

41:                                               ; preds = %70, %.lr.ph.i
  %indvars.iv.i = phi i64 [ 0, %.lr.ph.i ], [ %indvars.iv.next.i, %70 ]
  %.05668.i = phi ptr [ %.016, %.lr.ph.i ], [ %77, %70 ]
  %42 = getelementptr inbounds float, ptr %.05668.i, i64 %36
  %43 = load float, ptr %42, align 4
  %44 = getelementptr inbounds i8, ptr %.05668.i, i64 4
  %45 = load float, ptr %44, align 4
  %46 = getelementptr inbounds float, ptr %.05668.i, i64 %38
  %47 = load float, ptr %46, align 4
  %48 = fcmp olt float %47, %45
  %.054.i = select i1 %48, float %45, float %47
  %49 = fcmp olt float %.054.i, %43
  %.155.i = select i1 %49, float %43, float %.054.i
  %50 = fcmp ogt float %47, %45
  %.0.i = select i1 %50, float %45, float %47
  %51 = fcmp ogt float %.0.i, %43
  %.1.i = select i1 %51, float %43, float %.0.i
  %52 = fsub float %.155.i, %.1.i
  %53 = call noundef float @llvm.fabs.f32(float %.155.i)
  %54 = fadd float %53, 0x3E80000000000000
  %55 = fdiv float %52, %54
  %56 = fadd float %52, 0x3E80000000000000
  %57 = fdiv float 6.000000e+01, %56
  %58 = fcmp oeq float %.155.i, %47
  br i1 %58, label %59, label %62

59:                                               ; preds = %41
  %60 = fsub float %45, %43
  %61 = fmul float %60, %57
  br label %70

62:                                               ; preds = %41
  %63 = fcmp oeq float %.155.i, %45
  br i1 %63, label %64, label %67

64:                                               ; preds = %62
  %65 = fsub float %43, %47
  %66 = call float @llvm.fmuladd.f32(float %65, float %57, float 1.200000e+02)
  br label %70

67:                                               ; preds = %62
  %68 = fsub float %47, %45
  %69 = call float @llvm.fmuladd.f32(float %68, float %57, float 2.400000e+02)
  br label %70

70:                                               ; preds = %67, %64, %59
  %.057.i = phi float [ %61, %59 ], [ %66, %64 ], [ %69, %67 ]
  %71 = fcmp olt float %.057.i, 0.000000e+00
  %72 = fadd float %.057.i, 3.600000e+02
  %.158.i = select i1 %71, float %72, float %.057.i
  %73 = fmul float %30, %.158.i
  %74 = getelementptr inbounds float, ptr %.01215, i64 %indvars.iv.i
  store float %73, ptr %74, align 4
  %75 = getelementptr inbounds i8, ptr %74, i64 4
  store float %55, ptr %75, align 4
  %76 = getelementptr inbounds i8, ptr %74, i64 8
  store float %.155.i, ptr %76, align 4
  %indvars.iv.next.i = add nuw nsw i64 %indvars.iv.i, 3
  %77 = getelementptr inbounds float, ptr %.05668.i, i64 %39
  %78 = icmp ult i64 %indvars.iv.next.i, %40
  br i1 %78, label %41, label %._crit_edge.i, !llvm.loop !21

._crit_edge.i:                                    ; preds = %70, %.noexc
  %79 = load i32, ptr %24, align 8
  %.not.i.i = icmp eq i32 %79, 0
  br i1 %.not.i.i, label %84, label %80

80:                                               ; preds = %._crit_edge.i
  invoke void @_ZN2cv5utils5trace7details6Region7destroyEv(ptr noundef nonnull align 8 dereferenceable(12) %3)
          to label %84 unwind label %81

81:                                               ; preds = %80
  %82 = landingpad { ptr, i32 }
          catch ptr null
  %83 = extractvalue { ptr, i32 } %82, 0
  call void @__clang_call_terminate(ptr %83) #15
  unreachable

84:                                               ; preds = %80, %._crit_edge.i
  call void @llvm.lifetime.end.p0(i64 16, ptr nonnull %3)
  %85 = add nsw i32 %.01314, 1
  %86 = load i64, ptr %6, align 8
  %87 = getelementptr inbounds i8, ptr %.016, i64 %86
  %88 = load i64, ptr %7, align 8
  %89 = getelementptr inbounds i8, ptr %.01215, i64 %88
  %90 = load i32, ptr %8, align 4
  %91 = icmp slt i32 %85, %90
  br i1 %91, label %25, label %._crit_edge, !llvm.loop !22

92:                                               ; preds = %25
  %93 = landingpad { ptr, i32 }
          cleanup
  call void @_ZN2cv5utils5trace7details6RegionD2Ev(ptr noundef nonnull align 8 dereferenceable(12) %4) #14
  resume { ptr, i32 } %93

._crit_edge:                                      ; preds = %84, %2
  %94 = getelementptr inbounds i8, ptr %4, i64 8
  %95 = load i32, ptr %94, align 8
  %.not.i = icmp eq i32 %95, 0
  br i1 %.not.i, label %_ZN2cv5utils5trace7details6RegionD2Ev.exit, label %96

96:                                               ; preds = %._crit_edge
  invoke void @_ZN2cv5utils5trace7details6Region7destroyEv(ptr noundef nonnull align 8 dereferenceable(12) %4)
          to label %_ZN2cv5utils5trace7details6RegionD2Ev.exit unwind label %97

97:                                               ; preds = %96
  %98 = landingpad { ptr, i32 }
          catch ptr null
  %99 = extractvalue { ptr, i32 } %98, 0
  call void @__clang_call_terminate(ptr %99) #15
  unreachable

_ZN2cv5utils5trace7details6RegionD2Ev.exit:       ; preds = %._crit_edge, %96
  ret void
}